; Function Attrs: nounwind uwtable
define internal i32 @lj_cf_ffi_meta___index(ptr noundef %0) #0 {
  %2 = alloca i32, align 4
  %3 = alloca ptr, align 8
  %4 = getelementptr inbounds nuw i8, ptr %0, i64 16
  %5 = load i64, ptr %4, align 8, !tbaa !24
  %6 = inttoptr i64 %5 to ptr
  %7 = getelementptr inbounds nuw i8, ptr %6, i64 384
  %8 = load i64, ptr %7, align 8, !tbaa !41
  %9 = inttoptr i64 %8 to ptr
  %10 = getelementptr inbounds nuw i8, ptr %9, i64 16
  store ptr %0, ptr %10, align 8, !tbaa !42
  call void @llvm.lifetime.start.p0(i64 4, ptr nonnull %2) #9
  store i32 0, ptr %2, align 4, !tbaa !43
  call void @llvm.lifetime.start.p0(i64 8, ptr nonnull %3) #9
  %11 = getelementptr inbounds nuw i8, ptr %0, i64 32
  %12 = load ptr, ptr %11, align 8, !tbaa !44
  %13 = getelementptr inbounds nuw i8, ptr %12, i64 8
  %14 = getelementptr inbounds nuw i8, ptr %0, i64 40
  %15 = load ptr, ptr %14, align 8, !tbaa !4
  %16 = icmp ult ptr %13, %15
  br i1 %16, label %17, label %20

17:                                               ; preds = %1
  %18 = load i64, ptr %12, align 8, !tbaa !23
  %.mask = and i64 %18, -140737488355328
  %19 = icmp eq i64 %.mask, -1548112371908608
  br i1 %19, label %21, label %20

20:                                               ; preds = %17, %1
  tail call void @lj_err_argt(ptr noundef nonnull %0, i32 noundef 1, i32 noundef 10) #10
  unreachable

21:                                               ; preds = %17
  %22 = and i64 %18, 140737488355327
  %23 = inttoptr i64 %22 to ptr
  %24 = call ptr @lj_cdata_index(ptr noundef nonnull %9, ptr noundef %23, ptr noundef nonnull %13, ptr noundef nonnull %3, ptr noundef nonnull %2) #9
  %25 = load i32, ptr %2, align 4, !tbaa !43
  %26 = and i32 %25, 1
  %.not = icmp eq i32 %26, 0
  br i1 %.not, label %29, label %27

27:                                               ; preds = %21
  %28 = call fastcc i32 @ffi_index_meta(ptr noundef nonnull %0, ptr noundef nonnull %9, ptr noundef %24, i32 noundef 0)
  br label %43

29:                                               ; preds = %21
  %30 = load ptr, ptr %14, align 8, !tbaa !4
  %31 = getelementptr inbounds i8, ptr %30, i64 -8
  %32 = load ptr, ptr %3, align 8, !tbaa !45
  %33 = call i32 @lj_cdata_get(ptr noundef nonnull %9, ptr noundef %24, ptr noundef nonnull %31, ptr noundef %32) #9
  %.not19 = icmp eq i32 %33, 0
  br i1 %.not19, label %43, label %34

34:                                               ; preds = %29
  %35 = load i64, ptr %4, align 8, !tbaa !24
  %36 = inttoptr i64 %35 to ptr
  %37 = getelementptr inbounds nuw i8, ptr %36, i64 16
  %38 = load i64, ptr %37, align 8, !tbaa !46
  %39 = getelementptr inbounds nuw i8, ptr %36, i64 24
  %40 = load i64, ptr %39, align 8, !tbaa !47
  %.not20 = icmp ult i64 %38, %40
  br i1 %.not20, label %43, label %41, !prof !27

41:                                               ; preds = %34
  %42 = call i32 @lj_gc_step(ptr noundef nonnull %0) #9
  br label %43

43:                                               ; preds = %29, %41, %34, %27
  %.0 = phi i32 [ %28, %27 ], [ 1, %34 ], [ 1, %41 ], [ 1, %29 ]
  call void @llvm.lifetime.end.p0(i64 8, ptr nonnull %3) #9
  call void @llvm.lifetime.end.p0(i64 4, ptr nonnull %2) #9
  ret i32 %.0
}